target datalayout = "e-m:e-p270:32:32-p271:32:32-p272:64:64-i64:64-i128:128-f80:128-n8:16:32:64-S128"
target triple = "x86_64-pc-linux-gnu"

%struct._typeobject = type { %struct.PyVarObject, ptr, i64, i64, ptr, i64, ptr, ptr, ptr, ptr, ptr, ptr, ptr, ptr, ptr, ptr, ptr, ptr, ptr, i64, ptr, ptr, ptr, ptr, i64, ptr, ptr, ptr, ptr, ptr, ptr, ptr, ptr, ptr, i64, ptr, ptr, ptr, ptr, ptr, ptr, ptr, ptr, ptr, ptr, ptr, i32, ptr, ptr }
%struct.PyVarObject = type { %struct._object, i64 }
%struct._object = type { i64, ptr }
%"class.pybind11::object" = type { %"class.pybind11::handle" }
%"class.pybind11::handle" = type { ptr }
%class.anon.394 = type { i8 }

@_ZTISt13runtime_error = external constant ptr
@.str.154 = private unnamed_addr constant [45 x i8] c"Invalid number of arguments for example_name\00", align 1
@.str.155 = private unnamed_addr constant [33 x i8] c"Invalid argument to example_name\00", align 1

; Function Attrs: inlinehint mustprogress uwtable
define internal void @_ZL10_Py_DECREFP7_object(ptr noundef %0) #11 {
  %2 = alloca ptr, align 8
  store ptr %0, ptr %2, align 8, !tbaa !90
  %3 = load ptr, ptr %2, align 8, !tbaa !90
  %4 = getelementptr inbounds nuw %struct._object, ptr %3, i32 0, i32 0
  %5 = load i64, ptr %4, align 8, !tbaa !211
  %6 = add nsw i64 %5, -1
  store i64 %6, ptr %4, align 8, !tbaa !211
  %7 = icmp ne i64 %6, 0
  br i1 %7, label %8, label %9

8:                                                ; preds = %1
  br label %11

9:                                                ; preds = %1
  %10 = load ptr, ptr %2, align 8, !tbaa !90
  call void @_Py_Dealloc(ptr noundef %10)
  br label %11

11:                                               ; preds = %9, %8
  ret void
}

; Function Attrs: inlinehint mustprogress uwtable
define internal void @_ZL11_Py_XDECREFP7_object(ptr noundef %0) #11 {
  %2 = alloca ptr, align 8
  store ptr %0, ptr %2, align 8, !tbaa !90
  %3 = load ptr, ptr %2, align 8, !tbaa !90
  %4 = icmp ne ptr %3, null
  br i1 %4, label %5, label %7

5:                                                ; preds = %1
  %6 = load ptr, ptr %2, align 8, !tbaa !90
  call void @_ZL10_Py_DECREFP7_object(ptr noundef %6)
  br label %7

7:                                                ; preds = %5, %1
  ret void
}

; Function Attrs: mustprogress nounwind uwtable
define linkonce_odr hidden void @_ZN8pybind116objectC2ENS_6handleENS0_8stolen_tE(ptr noundef nonnull align 8 dereferenceable(8) %0, ptr %1) unnamed_addr #5 comdat align 2 {
  %3 = alloca %"class.pybind11::handle", align 8
  %4 = alloca ptr, align 8
  %5 = getelementptr inbounds nuw %"class.pybind11::handle", ptr %3, i32 0, i32 0
  store ptr %1, ptr %5, align 8
  store ptr %0, ptr %4, align 8, !tbaa !148
  %6 = load ptr, ptr %4, align 8
  call void @llvm.memcpy.p0.p0.i64(ptr align 8 %6, ptr align 8 %3, i64 8, i1 false)
  ret void
}

; Function Attrs: noinline noreturn nounwind uwtable
define linkonce_odr hidden void @__clang_call_terminate(ptr noundef %0) #3 comdat {
  %2 = call ptr @__cxa_begin_catch(ptr %0) #25
  call void @_ZSt9terminatev() #32
  unreachable
}

; Function Attrs: mustprogress uwtable
define linkonce_odr hidden noundef nonnull align 8 dereferenceable(8) ptr @_ZNKR8pybind116handle7dec_refEv(ptr noundef nonnull align 8 dereferenceable(8) %0) #4 comdat align 2 {
  %2 = alloca ptr, align 8
  store ptr %0, ptr %2, align 8, !tbaa !126
  %3 = load ptr, ptr %2, align 8
  %4 = getelementptr inbounds nuw %"class.pybind11::handle", ptr %3, i32 0, i32 0
  %5 = load ptr, ptr %4, align 8, !tbaa !125
  call void @_ZL11_Py_XDECREFP7_object(ptr noundef %5)
  ret ptr %3
}

; Function Attrs: mustprogress nounwind uwtable
define linkonce_odr hidden void @_ZN8pybind116handleC2IP7_objectTnNSt9enable_ifIXsr6detail25is_pyobj_ptr_or_nullptr_tIT_EE5valueEiE4typeELi0EEES5_(ptr noundef nonnull align 8 dereferenceable(8) %0, ptr noundef %1) unnamed_addr #5 comdat align 2 {
  %3 = alloca ptr, align 8
  %4 = alloca ptr, align 8
  store ptr %0, ptr %3, align 8, !tbaa !126
  store ptr %1, ptr %4, align 8, !tbaa !90
  %5 = load ptr, ptr %3, align 8
  %6 = getelementptr inbounds nuw %"class.pybind11::handle", ptr %5, i32 0, i32 0
  %7 = load ptr, ptr %4, align 8, !tbaa !90
  store ptr %7, ptr %6, align 8, !tbaa !125
  ret void
}

; Function Attrs: mustprogress uwtable
define linkonce_odr hidden void @_ZN8pybind1117reinterpret_stealINS_6objectEEET_NS_6handleE(ptr dead_on_unwind noalias writable sret(%"class.pybind11::object") align 8 %0, ptr %1) #4 comdat {
  %3 = alloca ptr, align 8
  %4 = alloca %"class.pybind11::handle", align 8
  %5 = alloca %"class.pybind11::handle", align 8
  store ptr %0, ptr %3, align 8
  %6 = getelementptr inbounds nuw %"class.pybind11::handle", ptr %4, i32 0, i32 0
  store ptr %1, ptr %6, align 8
  call void @llvm.memcpy.p0.p0.i64(ptr align 8 %5, ptr align 8 %4, i64 8, i1 false)
  %7 = getelementptr inbounds nuw %"class.pybind11::handle", ptr %5, i32 0, i32 0
  %8 = load ptr, ptr %7, align 8
  call void @_ZN8pybind116objectC2ENS_6handleENS0_8stolen_tE(ptr noundef nonnull align 8 dereferenceable(8) %0, ptr %8)
  ret void
}

; Function Attrs: mustprogress uwtable
define linkonce_odr hidden ptr @_ZN8pybind116detail11type_casterIlvE4castIlEENSt9enable_ifIXaaaantsr3std17is_floating_pointIT_EE5valuesr3std9is_signedIS5_EE5valuelestS5_Lm8EENS_6handleEE4typeES5_NS_19return_value_policyES6_(i64 noundef %0, i8 noundef zeroext %1, ptr %2) #4 comdat align 2 {
  %4 = alloca %"class.pybind11::handle", align 8
  %5 = alloca %"class.pybind11::handle", align 8
  %6 = alloca i64, align 8
  %7 = alloca i8, align 1
  %8 = getelementptr inbounds nuw %"class.pybind11::handle", ptr %5, i32 0, i32 0
  store ptr %2, ptr %8, align 8
  store i64 %0, ptr %6, align 8, !tbaa !220
  store i8 %1, ptr %7, align 1, !tbaa !880
  %9 = load i64, ptr %6, align 8, !tbaa !220
  %10 = call ptr @PyLong_FromSsize_t(i64 noundef %9)
  call void @_ZN8pybind116handleC2IP7_objectTnNSt9enable_ifIXsr6detail25is_pyobj_ptr_or_nullptr_tIT_EE5valueEiE4typeELi0EEES5_(ptr noundef nonnull align 8 dereferenceable(8) %4, ptr noundef %10)
  %11 = getelementptr inbounds nuw %"class.pybind11::handle", ptr %4, i32 0, i32 0
  %12 = load ptr, ptr %11, align 8
  ret ptr %12
}

; Function Attrs: mustprogress nounwind uwtable
define linkonce_odr hidden void @_ZN8pybind116objectD2Ev(ptr noundef nonnull align 8 dereferenceable(8) %0) unnamed_addr #5 comdat align 2 personality ptr @__gxx_personality_v0 {
  %2 = alloca ptr, align 8
  store ptr %0, ptr %2, align 8, !tbaa !148
  %3 = load ptr, ptr %2, align 8
  %4 = invoke noundef nonnull align 8 dereferenceable(8) ptr @_ZNKR8pybind116handle7dec_refEv(ptr noundef nonnull align 8 dereferenceable(8) %3)
          to label %5 unwind label %6

5:                                                ; preds = %1
  ret void

6:                                                ; preds = %1
  %7 = landingpad { ptr, i32 }
          catch ptr null
  %8 = extractvalue { ptr, i32 } %7, 0
  call void @__clang_call_terminate(ptr %8) #32
  unreachable
}

; Function Attrs: mustprogress nounwind uwtable
define linkonce_odr hidden noundef nonnull align 8 dereferenceable(8) ptr @_ZN8pybind116handle3ptrEv(ptr noundef nonnull align 8 dereferenceable(8) %0) #5 comdat align 2 {
  %2 = alloca ptr, align 8
  store ptr %0, ptr %2, align 8, !tbaa !126
  %3 = load ptr, ptr %2, align 8
  %4 = getelementptr inbounds nuw %"class.pybind11::handle", ptr %3, i32 0, i32 0
  ret ptr %4
}

; Function Attrs: mustprogress uwtable
define linkonce_odr hidden ptr @_ZN8pybind116object7releaseEv(ptr noundef nonnull align 8 dereferenceable(8) %0) #4 comdat align 2 {
  %2 = alloca %"class.pybind11::handle", align 8
  %3 = alloca ptr, align 8
  %4 = alloca ptr, align 8
  store ptr %0, ptr %3, align 8, !tbaa !148
  %5 = load ptr, ptr %3, align 8
  call void @llvm.lifetime.start.p0(i64 8, ptr %4) #25
  %6 = getelementptr inbounds nuw %"class.pybind11::handle", ptr %5, i32 0, i32 0
  %7 = load ptr, ptr %6, align 8, !tbaa !125
  store ptr %7, ptr %4, align 8, !tbaa !90
  %8 = getelementptr inbounds nuw %"class.pybind11::handle", ptr %5, i32 0, i32 0
  store ptr null, ptr %8, align 8, !tbaa !125
  %9 = load ptr, ptr %4, align 8, !tbaa !90
  call void @_ZN8pybind116handleC2IP7_objectTnNSt9enable_ifIXsr6detail25is_pyobj_ptr_or_nullptr_tIT_EE5valueEiE4typeELi0EEES5_(ptr noundef nonnull align 8 dereferenceable(8) %2, ptr noundef %9)
  call void @llvm.lifetime.end.p0(i64 8, ptr %4) #25
  %10 = getelementptr inbounds nuw %"class.pybind11::handle", ptr %2, i32 0, i32 0
  %11 = load ptr, ptr %10, align 8
  ret ptr %11
}

; Function Attrs: mustprogress uwtable
define linkonce_odr hidden void @_ZN8pybind114castIlTnNSt9enable_ifIXntsr11is_pyobjectIT_EE5valueEiE4typeELi0EEENS_6objectEOS2_NS_19return_value_policyENS_6handleE(ptr dead_on_unwind noalias writable sret(%"class.pybind11::object") align 8 %0, ptr noundef nonnull align 8 dereferenceable(8) %1, i8 noundef zeroext %2, ptr %3) #4 comdat {
  %5 = alloca ptr, align 8
  %6 = alloca %"class.pybind11::handle", align 8
  %7 = alloca ptr, align 8
  %8 = alloca i8, align 1
  %9 = alloca %"class.pybind11::handle", align 8
  %10 = alloca %"class.pybind11::handle", align 8
  store ptr %0, ptr %5, align 8
  %11 = getelementptr inbounds nuw %"class.pybind11::handle", ptr %6, i32 0, i32 0
  store ptr %3, ptr %11, align 8
  store ptr %1, ptr %7, align 8, !tbaa !701
  store i8 %2, ptr %8, align 1, !tbaa !880
  %12 = load i8, ptr %8, align 1, !tbaa !880
  %13 = icmp eq i8 %12, 0
  br i1 %13, label %14, label %15

14:                                               ; preds = %4
  store i8 4, ptr %8, align 1, !tbaa !880
  br label %20

15:                                               ; preds = %4
  %16 = load i8, ptr %8, align 1, !tbaa !880
  %17 = icmp eq i8 %16, 1
  br i1 %17, label %18, label %19

18:                                               ; preds = %15
  store i8 4, ptr %8, align 1, !tbaa !880
  br label %19

19:                                               ; preds = %18, %15
  br label %20

20:                                               ; preds = %19, %14
  %21 = load ptr, ptr %7, align 8, !tbaa !701
  %22 = load i64, ptr %21, align 8, !tbaa !220
  %23 = load i8, ptr %8, align 1, !tbaa !880
  call void @llvm.memcpy.p0.p0.i64(ptr align 8 %10, ptr align 8 %6, i64 8, i1 false)
  %24 = getelementptr inbounds nuw %"class.pybind11::handle", ptr %10, i32 0, i32 0
  %25 = load ptr, ptr %24, align 8
  %26 = call ptr @_ZN8pybind116detail11type_casterIlvE4castIlEENSt9enable_ifIXaaaantsr3std17is_floating_pointIT_EE5valuesr3std9is_signedIS5_EE5valuelestS5_Lm8EENS_6handleEE4typeES5_NS_19return_value_policyES6_(i64 noundef %22, i8 noundef zeroext %23, ptr %25)
  %27 = getelementptr inbounds nuw %"class.pybind11::handle", ptr %9, i32 0, i32 0
  store ptr %26, ptr %27, align 8
  %28 = getelementptr inbounds nuw %"class.pybind11::handle", ptr %9, i32 0, i32 0
  %29 = load ptr, ptr %28, align 8
  call void @_ZN8pybind1117reinterpret_stealINS_6objectEEET_NS_6handleE(ptr dead_on_unwind writable sret(%"class.pybind11::object") align 8 %0, ptr %29)
  ret void
}

; Function Attrs: mustprogress nounwind uwtable
define linkonce_odr hidden void @_ZN8pybind116handleC2Ev(ptr noundef nonnull align 8 dereferenceable(8) %0) unnamed_addr #5 comdat align 2 {
  %2 = alloca ptr, align 8
  store ptr %0, ptr %2, align 8, !tbaa !126
  %3 = load ptr, ptr %2, align 8
  %4 = getelementptr inbounds nuw %"class.pybind11::handle", ptr %3, i32 0, i32 0
  store ptr null, ptr %4, align 8, !tbaa !125
  ret void
}

; Function Attrs: inlinehint mustprogress nounwind uwtable
define internal noundef i32 @_ZL17PyType_HasFeatureP11_typeobjectm(ptr noundef %0, i64 noundef %1) #0 {
  %3 = alloca ptr, align 8
  %4 = alloca i64, align 8
  %5 = alloca i64, align 8
  store ptr %0, ptr %3, align 8, !tbaa !197
  store i64 %1, ptr %4, align 8, !tbaa !220
  call void @llvm.lifetime.start.p0(i64 8, ptr %5) #25
  %6 = load ptr, ptr %3, align 8, !tbaa !197
  %7 = getelementptr inbounds nuw %struct._typeobject, ptr %6, i32 0, i32 19
  %8 = load i64, ptr %7, align 8, !tbaa !200
  store i64 %8, ptr %5, align 8, !tbaa !220
  %9 = load i64, ptr %5, align 8, !tbaa !220
  %10 = load i64, ptr %4, align 8, !tbaa !220
  %11 = and i64 %9, %10
  %12 = icmp ne i64 %11, 0
  %13 = zext i1 %12 to i32
  call void @llvm.lifetime.end.p0(i64 8, ptr %5) #25
  ret i32 %13
}

; Function Attrs: inlinehint mustprogress uwtable
define internal noundef ptr @"_ZZZ24test_submodule_callbacksRN8pybind117module_EENK4$_26clEvENKUlP7_objectS4_E_clES4_S4_"(ptr noundef nonnull align 1 dereferenceable(1) %0, ptr noundef %1, ptr noundef %2) #11 align 2 personality ptr @__gxx_personality_v0 {
  %4 = alloca ptr, align 8
  %5 = alloca ptr, align 8
  %6 = alloca ptr, align 8
  %7 = alloca ptr, align 8
  %8 = alloca i32, align 4
  %9 = alloca ptr, align 8
  %10 = alloca %"class.pybind11::object", align 8
  %11 = alloca i64, align 8
  %12 = alloca %"class.pybind11::handle", align 8
  %13 = alloca %"class.pybind11::handle", align 8
  store ptr %0, ptr %4, align 8, !tbaa !85
  store ptr %1, ptr %5, align 8, !tbaa !90
  store ptr %2, ptr %6, align 8, !tbaa !90
  %14 = load ptr, ptr %6, align 8, !tbaa !90
  %15 = call i64 @PyTuple_Size(ptr noundef %14)
  %16 = icmp ne i64 %15, 1
  br i1 %16, label %17, label %24

17:                                               ; preds = %3
  %18 = call ptr @__cxa_allocate_exception(i64 16) #25
  invoke void @_ZNSt13runtime_errorC1EPKc(ptr noundef nonnull align 8 dereferenceable(16) %18, ptr noundef @.str.154)
          to label %19 unwind label %20

19:                                               ; preds = %17
  call void @__cxa_throw(ptr %18, ptr @_ZTISt13runtime_error, ptr @_ZNSt13runtime_errorD1Ev) #34
  unreachable

20:                                               ; preds = %17
  %21 = landingpad { ptr, i32 }
          cleanup
  %22 = extractvalue { ptr, i32 } %21, 0
  store ptr %22, ptr %7, align 8
  %23 = extractvalue { ptr, i32 } %21, 1
  store i32 %23, ptr %8, align 4
  call void @__cxa_free_exception(ptr %18) #25
  br label %56

24:                                               ; preds = %3
  call void @llvm.lifetime.start.p0(i64 8, ptr %9) #25
  %25 = load ptr, ptr %6, align 8, !tbaa !90
  %26 = call ptr @PyTuple_GetItem(ptr noundef %25, i64 noundef 0)
  store ptr %26, ptr %9, align 8, !tbaa !90
  %27 = load ptr, ptr %9, align 8, !tbaa !90
  %28 = getelementptr inbounds nuw %struct._object, ptr %27, i32 0, i32 1
  %29 = load ptr, ptr %28, align 8, !tbaa !219
  %30 = call noundef i32 @_ZL17PyType_HasFeatureP11_typeobjectm(ptr noundef %29, i64 noundef 16777216)
  %31 = icmp ne i32 %30, 0
  br i1 %31, label %39, label %32

32:                                               ; preds = %24
  %33 = call ptr @__cxa_allocate_exception(i64 16) #25
  invoke void @_ZNSt13runtime_errorC1EPKc(ptr noundef nonnull align 8 dereferenceable(16) %33, ptr noundef @.str.155)
          to label %34 unwind label %35

34:                                               ; preds = %32
  call void @__cxa_throw(ptr %33, ptr @_ZTISt13runtime_error, ptr @_ZNSt13runtime_errorD1Ev) #34
  unreachable

35:                                               ; preds = %32
  %36 = landingpad { ptr, i32 }
          cleanup
  %37 = extractvalue { ptr, i32 } %36, 0
  store ptr %37, ptr %7, align 8
  %38 = extractvalue { ptr, i32 } %36, 1
  store i32 %38, ptr %8, align 4
  call void @__cxa_free_exception(ptr %33) #25
  br label %55

39:                                               ; preds = %24
  call void @llvm.lifetime.start.p0(i64 8, ptr %10) #25
  call void @llvm.lifetime.start.p0(i64 8, ptr %11) #25
  %40 = load ptr, ptr %9, align 8, !tbaa !90
  %41 = call i64 @PyLong_AsLong(ptr noundef %40)
  %42 = mul nsw i64 %41, 9
  store i64 %42, ptr %11, align 8, !tbaa !220
  call void @llvm.memset.p0.i64(ptr align 8 %12, i8 0, i64 8, i1 false)
  call void @_ZN8pybind116handleC2Ev(ptr noundef nonnull align 8 dereferenceable(8) %12) #25
  %43 = getelementptr inbounds nuw %"class.pybind11::handle", ptr %12, i32 0, i32 0
  %44 = load ptr, ptr %43, align 8
  call void @_ZN8pybind114castIlTnNSt9enable_ifIXntsr11is_pyobjectIT_EE5valueEiE4typeELi0EEENS_6objectEOS2_NS_19return_value_policyENS_6handleE(ptr dead_on_unwind writable sret(%"class.pybind11::object") align 8 %10, ptr noundef nonnull align 8 dereferenceable(8) %11, i8 noundef zeroext 1, ptr %44)
  call void @llvm.lifetime.end.p0(i64 8, ptr %11) #25
  call void @llvm.lifetime.start.p0(i64 8, ptr %13) #25
  %45 = invoke ptr @_ZN8pybind116object7releaseEv(ptr noundef nonnull align 8 dereferenceable(8) %10)
          to label %46 unwind label %51

46:                                               ; preds = %39
  %47 = getelementptr inbounds nuw %"class.pybind11::handle", ptr %13, i32 0, i32 0
  store ptr %45, ptr %47, align 8
  %48 = invoke noundef nonnull align 8 dereferenceable(8) ptr @_ZN8pybind116handle3ptrEv(ptr noundef nonnull align 8 dereferenceable(8) %13)
          to label %49 unwind label %51

49:                                               ; preds = %46
  %50 = load ptr, ptr %48, align 8, !tbaa !90
  call void @llvm.lifetime.end.p0(i64 8, ptr %13) #25
  call void @_ZN8pybind116objectD2Ev(ptr noundef nonnull align 8 dereferenceable(8) %10) #25
  call void @llvm.lifetime.end.p0(i64 8, ptr %10) #25
  call void @llvm.lifetime.end.p0(i64 8, ptr %9) #25
  ret ptr %50

51:                                               ; preds = %46, %39
  %52 = landingpad { ptr, i32 }
          cleanup
  %53 = extractvalue { ptr, i32 } %52, 0
  store ptr %53, ptr %7, align 8
  %54 = extractvalue { ptr, i32 } %52, 1
  store i32 %54, ptr %8, align 4
  call void @llvm.lifetime.end.p0(i64 8, ptr %13) #25
  call void @_ZN8pybind116objectD2Ev(ptr noundef nonnull align 8 dereferenceable(8) %10) #25
  call void @llvm.lifetime.end.p0(i64 8, ptr %10) #25
  br label %55

55:                                               ; preds = %51, %35
  call void @llvm.lifetime.end.p0(i64 8, ptr %9) #25
  br label %56

56:                                               ; preds = %55, %20
  %57 = load ptr, ptr %7, align 8
  %58 = load i32, ptr %8, align 4
  %59 = insertvalue { ptr, i32 } poison, ptr %57, 0
  %60 = insertvalue { ptr, i32 } %59, i32 %58, 1
  resume { ptr, i32 } %60
}

; Function Attrs: inlinehint mustprogress uwtable
define internal noundef ptr @"_ZZZ24test_submodule_callbacksRN8pybind117module_EENK4$_26clEvENUlP7_objectS4_E_8__invokeES4_S4_"(ptr noundef %0, ptr noundef %1) #11 align 2 {
  %3 = alloca ptr, align 8
  %4 = alloca ptr, align 8
  %5 = alloca %class.anon.394, align 1
  store ptr %0, ptr %3, align 8, !tbaa !90
  store ptr %1, ptr %4, align 8, !tbaa !90
  %6 = load ptr, ptr %3, align 8, !tbaa !90
  %7 = load ptr, ptr %4, align 8, !tbaa !90
  %8 = call noundef ptr @"_ZZZ24test_submodule_callbacksRN8pybind117module_EENK4$_26clEvENKUlP7_objectS4_E_clES4_S4_"(ptr noundef nonnull align 1 dereferenceable(1) %5, ptr noundef %6, ptr noundef %7)
  ret ptr %8
}