; Function Attrs: inlinehint mustprogress uwtable
define internal noundef ptr @"_ZZZ24test_submodule_callbacksRN8pybind117module_EENK4$_26clEvENUlP7_objectS4_E_8__invokeES4_S4_"(ptr readnone captures(none) %0, ptr noundef %1) #12 align 2 personality ptr @__gxx_personality_v0 {
  %3 = tail call i64 @PyTuple_Size(ptr noundef %1)
  %.not.i = icmp eq i64 %3, 1
  br i1 %.not.i, label %9, label %4

4:                                                ; preds = %2
  %5 = tail call ptr @__cxa_allocate_exception(i64 16) #38
  invoke void @_ZNSt13runtime_errorC1EPKc(ptr noundef nonnull align 8 dereferenceable(16) %5, ptr noundef nonnull @.str.154)
          to label %6 unwind label %7

6:                                                ; preds = %4
  tail call void @__cxa_throw(ptr nonnull %5, ptr nonnull @_ZTISt13runtime_error, ptr nonnull @_ZNSt13runtime_errorD1Ev) #40
  unreachable

7:                                                ; preds = %4
  %8 = landingpad { ptr, i32 }
          cleanup
  br label %20

9:                                                ; preds = %2
  %10 = tail call ptr @PyTuple_GetItem(ptr noundef %1, i64 noundef 0)
  %11 = getelementptr inbounds nuw i8, ptr %10, i64 8
  %12 = load ptr, ptr %11, align 8, !tbaa !470
  %13 = getelementptr i8, ptr %12, i64 168
  %.val.i = load i64, ptr %13, align 8, !tbaa !471
  %14 = and i64 %.val.i, 16777216
  %.not7.i = icmp eq i64 %14, 0
  br i1 %.not7.i, label %15, label %"_ZZZ24test_submodule_callbacksRN8pybind117module_EENK4$_26clEvENKUlP7_objectS4_E_clES4_S4_.exit"

15:                                               ; preds = %9
  %16 = tail call ptr @__cxa_allocate_exception(i64 16) #38
  invoke void @_ZNSt13runtime_errorC1EPKc(ptr noundef nonnull align 8 dereferenceable(16) %16, ptr noundef nonnull @.str.155)
          to label %17 unwind label %18

17:                                               ; preds = %15
  tail call void @__cxa_throw(ptr nonnull %16, ptr nonnull @_ZTISt13runtime_error, ptr nonnull @_ZNSt13runtime_errorD1Ev) #40
  unreachable

18:                                               ; preds = %15
  %19 = landingpad { ptr, i32 }
          cleanup
  br label %20

20:                                               ; preds = %18, %7
  %.sink.i = phi ptr [ %16, %18 ], [ %5, %7 ]
  %.pn9.i = phi { ptr, i32 } [ %19, %18 ], [ %8, %7 ]
  tail call void @__cxa_free_exception(ptr nonnull %.sink.i) #38
  resume { ptr, i32 } %.pn9.i

"_ZZZ24test_submodule_callbacksRN8pybind117module_EENK4$_26clEvENKUlP7_objectS4_E_clES4_S4_.exit": ; preds = %9
  %21 = tail call i64 @PyLong_AsLong(ptr noundef nonnull %10)
  %22 = mul nsw i64 %21, 9
  %23 = tail call noundef ptr @PyLong_FromSsize_t(i64 noundef %22), !noalias !1144
  ret ptr %23
}